target datalayout = "e-m:e-p270:32:32-p271:32:32-p272:64:64-i64:64-i128:128-f80:128-n8:16:32:64-S128"
target triple = "x86_64-pc-linux-gnu"

%struct.lua_TValue = type { %union.Value, [1 x i32], i32 }
%union.Value = type { ptr }
%struct.lua_State = type { i8, i8, i8, i8, i8, i8, i8, ptr, ptr, ptr, ptr, ptr, ptr, ptr, ptr, i32, i32, i16, i16, i32, ptr, ptr, ptr, ptr, ptr }
%struct.GCheader = type { i8, i8, i8 }
%struct.global_State = type { %struct.stringtable, ptr, ptr, i8, i8, ptr, ptr, ptr, i64, i64, i32, i32, i32, [40 x ptr], [40 x ptr], ptr, ptr, ptr, [256 x i64], ptr, %struct.UpVal, [11 x ptr], [11 x ptr], [21 x ptr], %struct.lua_TValue, %struct.lua_TValue, i32, ptr, i64, [4 x i64], %struct.lua_Callbacks, %struct.lua_ExecutionCallbacks, [128 x ptr], [128 x ptr], [128 x ptr], %struct.GCStats }
%struct.stringtable = type { ptr, i32, i32 }
%struct.UpVal = type { i8, i8, i8, i8, ptr, %union.anon.3 }
%union.anon.3 = type { %struct.anon.4 }
%struct.anon.4 = type { ptr, ptr, ptr }
%struct.lua_Callbacks = type { ptr, ptr, ptr, ptr, ptr, ptr, ptr, ptr, ptr, ptr }
%struct.lua_ExecutionCallbacks = type { ptr, ptr, ptr, ptr, ptr, ptr, ptr }
%struct.GCStats = type { [32 x i32], i32, i32, i64, i64, i64, double, double, double }

; Function Attrs: mustprogress uwtable
define dso_local void @_Z15lua_pushlstringP9lua_StatePKcm(ptr noundef %0, ptr noundef %1, i64 noundef %2) #0 {
  %4 = alloca ptr, align 8
  %5 = alloca ptr, align 8
  %6 = alloca i64, align 8
  %7 = alloca ptr, align 8
  store ptr %0, ptr %4, align 8, !tbaa !4
  store ptr %1, ptr %5, align 8, !tbaa !62
  store i64 %2, ptr %6, align 8, !tbaa !69
  %8 = load ptr, ptr %4, align 8, !tbaa !4
  %9 = getelementptr inbounds nuw %struct.lua_State, ptr %8, i32 0, i32 9
  %10 = load ptr, ptr %9, align 8, !tbaa !33
  %11 = getelementptr inbounds nuw %struct.global_State, ptr %10, i32 0, i32 9
  %12 = load i64, ptr %11, align 8, !tbaa !34
  %13 = load ptr, ptr %4, align 8, !tbaa !4
  %14 = getelementptr inbounds nuw %struct.lua_State, ptr %13, i32 0, i32 9
  %15 = load ptr, ptr %14, align 8, !tbaa !33
  %16 = getelementptr inbounds nuw %struct.global_State, ptr %15, i32 0, i32 8
  %17 = load i64, ptr %16, align 8, !tbaa !48
  %18 = icmp uge i64 %12, %17
  br i1 %18, label %19, label %22

19:                                               ; preds = %3
  %20 = load ptr, ptr %4, align 8, !tbaa !4
  %21 = call noundef i64 @_Z9luaC_stepP9lua_Stateb(ptr noundef %20, i1 noundef zeroext true)
  br label %23

22:                                               ; preds = %3
  br label %23

23:                                               ; preds = %22, %19
  %24 = load ptr, ptr %4, align 8, !tbaa !4
  %25 = getelementptr inbounds %struct.lua_State, ptr %24, i64 0
  %26 = getelementptr inbounds nuw %struct.GCheader, ptr %25, i32 0, i32 1
  %27 = load i8, ptr %26, align 1, !tbaa !25
  %28 = zext i8 %27 to i32
  %29 = and i32 %28, 4
  %30 = icmp ne i32 %29, 0
  br i1 %30, label %31, label %37

31:                                               ; preds = %23
  %32 = load ptr, ptr %4, align 8, !tbaa !4
  %33 = load ptr, ptr %4, align 8, !tbaa !4
  %34 = getelementptr inbounds %struct.lua_State, ptr %33, i64 0
  %35 = load ptr, ptr %4, align 8, !tbaa !4
  %36 = getelementptr inbounds nuw %struct.lua_State, ptr %35, i32 0, i32 22
  call void @_Z16luaC_barrierbackP9lua_StateP8GCObjectPS2_(ptr noundef %32, ptr noundef %34, ptr noundef %36)
  br label %37

37:                                               ; preds = %31, %23
  call void @llvm.lifetime.start.p0(i64 8, ptr %7) #11
  %38 = load ptr, ptr %4, align 8, !tbaa !4
  %39 = getelementptr inbounds nuw %struct.lua_State, ptr %38, i32 0, i32 7
  %40 = load ptr, ptr %39, align 8, !tbaa !23
  store ptr %40, ptr %7, align 8, !tbaa !11
  %41 = load ptr, ptr %4, align 8, !tbaa !4
  %42 = load ptr, ptr %5, align 8, !tbaa !62
  %43 = load i64, ptr %6, align 8, !tbaa !69
  %44 = call noundef ptr @_Z12luaS_newlstrP9lua_StatePKcm(ptr noundef %41, ptr noundef %42, i64 noundef %43)
  %45 = load ptr, ptr %7, align 8, !tbaa !11
  %46 = getelementptr inbounds nuw %struct.lua_TValue, ptr %45, i32 0, i32 0
  store ptr %44, ptr %46, align 8, !tbaa !25
  %47 = load ptr, ptr %7, align 8, !tbaa !11
  %48 = getelementptr inbounds nuw %struct.lua_TValue, ptr %47, i32 0, i32 2
  store i32 5, ptr %48, align 4, !tbaa !49
  call void @llvm.lifetime.end.p0(i64 8, ptr %7) #11
  %49 = load ptr, ptr %4, align 8, !tbaa !4
  %50 = getelementptr inbounds nuw %struct.lua_State, ptr %49, i32 0, i32 7
  %51 = load ptr, ptr %50, align 8, !tbaa !23
  %52 = getelementptr inbounds nuw %struct.lua_TValue, ptr %51, i32 1
  store ptr %52, ptr %50, align 8, !tbaa !23
  ret void
}