; Function Attrs: mustprogress uwtable
define dso_local void @_Z15lua_pushlstringP9lua_StatePKcm(ptr noundef %0, ptr noundef %1, i64 noundef %2) local_unnamed_addr #3 {
  %4 = getelementptr inbounds nuw i8, ptr %0, i64 24
  %5 = load ptr, ptr %4, align 8, !tbaa !30
  %6 = getelementptr inbounds nuw i8, ptr %5, i64 72
  %7 = load i64, ptr %6, align 8, !tbaa !31
  %8 = getelementptr inbounds nuw i8, ptr %5, i64 64
  %9 = load i64, ptr %8, align 8, !tbaa !46
  %.not = icmp ult i64 %7, %9
  br i1 %.not, label %12, label %10

10:                                               ; preds = %3
  %11 = tail call noundef i64 @_Z9luaC_stepP9lua_Stateb(ptr noundef nonnull %0, i1 noundef zeroext true)
  br label %12

12:                                               ; preds = %3, %10
  %13 = getelementptr inbounds nuw i8, ptr %0, i64 1
  %14 = load i8, ptr %13, align 1, !tbaa !21
  %15 = and i8 %14, 4
  %.not13 = icmp eq i8 %15, 0
  br i1 %.not13, label %18, label %16

16:                                               ; preds = %12
  %17 = getelementptr inbounds nuw i8, ptr %0, i64 104
  tail call void @_Z16luaC_barrierbackP9lua_StateP8GCObjectPS2_(ptr noundef nonnull %0, ptr noundef nonnull %0, ptr noundef nonnull %17)
  br label %18

18:                                               ; preds = %16, %12
  %19 = getelementptr inbounds nuw i8, ptr %0, i64 8
  %20 = load ptr, ptr %19, align 8, !tbaa !19
  %21 = tail call noundef ptr @_Z12luaS_newlstrP9lua_StatePKcm(ptr noundef nonnull %0, ptr noundef %1, i64 noundef %2)
  store ptr %21, ptr %20, align 8, !tbaa !21
  %22 = getelementptr inbounds nuw i8, ptr %20, i64 12
  store i32 5, ptr %22, align 4, !tbaa !47
  %23 = load ptr, ptr %19, align 8, !tbaa !19
  %24 = getelementptr inbounds nuw i8, ptr %23, i64 16
  store ptr %24, ptr %19, align 8, !tbaa !19
  ret void
}